target datalayout = "e-m:e-p270:32:32-p271:32:32-p272:64:64-i64:64-i128:128-f80:128-n8:16:32:64-S128"
target triple = "x86_64-pc-linux-gnu"

%struct.Scheduler = type { ptr, ptr, i32, ptr, i32, i32, %union.pthread_mutex_t, i32, i32, %union.pthread_mutex_t, %union.pthread_cond_t, ptr, i32, ptr, i32, ptr, i32, ptr, i32, ptr, i32, i32, i32, %union.pthread_mutex_t, i64 }
%union.pthread_cond_t = type { %struct.__pthread_cond_s }
%struct.__pthread_cond_s = type { %union.__atomic_wide_counter, %union.__atomic_wide_counter, [2 x i32], [2 x i32], i32, i32, [2 x i32] }
%union.__atomic_wide_counter = type { i64 }
%union.pthread_mutex_t = type { %struct.__pthread_mutex_s }
%struct.__pthread_mutex_s = type { i32, i32, i32, i32, i32, i16, i16, %struct.__pthread_internal_list }
%struct.__pthread_internal_list = type { ptr, ptr }
%struct.SchTask = type { ptr, %struct.SchedulerNode, ptr, ptr, i64, i32 }
%struct.SchedulerNode = type { i32, i32, i32 }
%struct.SchWaiter = type { %union.pthread_mutex_t, %union.pthread_cond_t, i32, i32, i32 }
%struct.SchFilterGraph = type { ptr, ptr, i32, i32, i32, ptr, i32, %struct.SchTask, ptr, %struct.SchWaiter, i32, i32 }
%struct.SchFilterIn = type { %struct.SchedulerNode, %struct.SchedulerNode, i32, i32 }

@.str = private unnamed_addr constant [30 x i8] c"Assertion %s failed at %s:%d\0A\00", align 1
@.str.2 = private unnamed_addr constant [23 x i8] c"fftools/ffmpeg_sched.c\00", align 1
@.str.28 = private unnamed_addr constant [25 x i8] c"fg_idx < sch->nb_filters\00", align 1

; Function Attrs: nounwind uwtable
define internal i32 @send_to_filter(ptr noundef %0, ptr noundef %1, i32 noundef %2, ptr noundef %3) #0 {
  %5 = alloca i32, align 4
  %6 = alloca ptr, align 8
  %7 = alloca ptr, align 8
  %8 = alloca i32, align 4
  %9 = alloca ptr, align 8
  %10 = alloca i32, align 4
  %11 = alloca i32, align 4
  store ptr %0, ptr %6, align 8, !tbaa !10
  store ptr %1, ptr %7, align 8, !tbaa !78
  store i32 %2, ptr %8, align 4, !tbaa !12
  store ptr %3, ptr %9, align 8, !tbaa !232
  %12 = load ptr, ptr %9, align 8, !tbaa !232
  %13 = icmp ne ptr %12, null
  br i1 %13, label %14, label %21

14:                                               ; preds = %4
  %15 = load ptr, ptr %7, align 8, !tbaa !78
  %16 = getelementptr inbounds nuw %struct.SchFilterGraph, ptr %15, i32 0, i32 8
  %17 = load ptr, ptr %16, align 8, !tbaa !239
  %18 = load i32, ptr %8, align 4, !tbaa !12
  %19 = load ptr, ptr %9, align 8, !tbaa !232
  %20 = call i32 @tq_send(ptr noundef %17, i32 noundef %18, ptr noundef %19)
  store i32 %20, ptr %5, align 4
  br label %62

21:                                               ; preds = %4
  %22 = load ptr, ptr %7, align 8, !tbaa !78
  %23 = getelementptr inbounds nuw %struct.SchFilterGraph, ptr %22, i32 0, i32 1
  %24 = load ptr, ptr %23, align 8, !tbaa !126
  %25 = load i32, ptr %8, align 4, !tbaa !12
  %26 = zext i32 %25 to i64
  %27 = getelementptr inbounds nuw %struct.SchFilterIn, ptr %24, i64 %26
  %28 = getelementptr inbounds nuw %struct.SchFilterIn, ptr %27, i32 0, i32 2
  %29 = load i32, ptr %28, align 4, !tbaa !243
  %30 = icmp ne i32 %29, 0
  br i1 %30, label %61, label %31

31:                                               ; preds = %21
  %32 = load ptr, ptr %7, align 8, !tbaa !78
  %33 = getelementptr inbounds nuw %struct.SchFilterGraph, ptr %32, i32 0, i32 1
  %34 = load ptr, ptr %33, align 8, !tbaa !126
  %35 = load i32, ptr %8, align 4, !tbaa !12
  %36 = zext i32 %35 to i64
  %37 = getelementptr inbounds nuw %struct.SchFilterIn, ptr %34, i64 %36
  %38 = getelementptr inbounds nuw %struct.SchFilterIn, ptr %37, i32 0, i32 2
  store i32 1, ptr %38, align 4, !tbaa !243
  %39 = load ptr, ptr %7, align 8, !tbaa !78
  %40 = getelementptr inbounds nuw %struct.SchFilterGraph, ptr %39, i32 0, i32 8
  %41 = load ptr, ptr %40, align 8, !tbaa !239
  %42 = load i32, ptr %8, align 4, !tbaa !12
  call void @tq_send_finish(ptr noundef %41, i32 noundef %42)
  %43 = load ptr, ptr %7, align 8, !tbaa !78
  %44 = getelementptr inbounds nuw %struct.SchFilterGraph, ptr %43, i32 0, i32 3
  store i32 1, ptr %10, align 4, !tbaa !12
  %45 = load i32, ptr %10, align 4
  %46 = atomicrmw add ptr %44, i32 %45 seq_cst, align 4
  store i32 %46, ptr %11, align 4
  %47 = load i32, ptr %11, align 4, !tbaa !12
  %48 = load ptr, ptr %7, align 8, !tbaa !78
  %49 = getelementptr inbounds nuw %struct.SchFilterGraph, ptr %48, i32 0, i32 2
  %50 = load i32, ptr %49, align 8, !tbaa !127
  %51 = sub i32 %50, 1
  %52 = icmp eq i32 %47, %51
  br i1 %52, label %53, label %60

53:                                               ; preds = %31
  %54 = load ptr, ptr %7, align 8, !tbaa !78
  %55 = getelementptr inbounds nuw %struct.SchFilterGraph, ptr %54, i32 0, i32 8
  %56 = load ptr, ptr %55, align 8, !tbaa !239
  %57 = load ptr, ptr %7, align 8, !tbaa !78
  %58 = getelementptr inbounds nuw %struct.SchFilterGraph, ptr %57, i32 0, i32 2
  %59 = load i32, ptr %58, align 8, !tbaa !127
  call void @tq_send_finish(ptr noundef %56, i32 noundef %59)
  br label %60

60:                                               ; preds = %53, %31
  br label %61

61:                                               ; preds = %60, %21
  store i32 0, ptr %5, align 4
  br label %62

62:                                               ; preds = %61, %14
  %63 = load i32, ptr %5, align 4
  ret i32 %63
}

; Function Attrs: nounwind uwtable
define i32 @sch_filter_command(ptr noundef %0, i32 noundef %1, ptr noundef %2) #0 {
  %4 = alloca ptr, align 8
  %5 = alloca i32, align 4
  %6 = alloca ptr, align 8
  %7 = alloca ptr, align 8
  store ptr %0, ptr %4, align 8, !tbaa !10
  store i32 %1, ptr %5, align 4, !tbaa !12
  store ptr %2, ptr %6, align 8, !tbaa !232
  call void @llvm.lifetime.start.p0(i64 8, ptr %7) #9
  br label %8

8:                                                ; preds = %3
  %9 = load i32, ptr %5, align 4, !tbaa !12
  %10 = load ptr, ptr %4, align 8, !tbaa !10
  %11 = getelementptr inbounds nuw %struct.Scheduler, ptr %10, i32 0, i32 18
  %12 = load i32, ptr %11, align 8, !tbaa !76
  %13 = icmp ult i32 %9, %12
  br i1 %13, label %15, label %14

14:                                               ; preds = %8
  call void (ptr, i32, ptr, ...) @av_log(ptr noundef null, i32 noundef 0, ptr noundef @.str, ptr noundef @.str.28, ptr noundef @.str.2, i32 noundef 2509)
  call void @abort() #10
  unreachable

15:                                               ; preds = %8
  br label %16

16:                                               ; preds = %15
  br label %17

17:                                               ; preds = %16
  %18 = load ptr, ptr %4, align 8, !tbaa !10
  %19 = getelementptr inbounds nuw %struct.Scheduler, ptr %18, i32 0, i32 17
  %20 = load ptr, ptr %19, align 8, !tbaa !77
  %21 = load i32, ptr %5, align 4, !tbaa !12
  %22 = zext i32 %21 to i64
  %23 = getelementptr inbounds nuw %struct.SchFilterGraph, ptr %20, i64 %22
  store ptr %23, ptr %7, align 8, !tbaa !78
  %24 = load ptr, ptr %4, align 8, !tbaa !10
  %25 = load ptr, ptr %7, align 8, !tbaa !78
  %26 = load ptr, ptr %7, align 8, !tbaa !78
  %27 = getelementptr inbounds nuw %struct.SchFilterGraph, ptr %26, i32 0, i32 2
  %28 = load i32, ptr %27, align 8, !tbaa !127
  %29 = load ptr, ptr %6, align 8, !tbaa !232
  %30 = call i32 @send_to_filter(ptr noundef %24, ptr noundef %25, i32 noundef %28, ptr noundef %29)
  call void @llvm.lifetime.end.p0(i64 8, ptr %7) #9
  ret i32 %30
}