; Function Attrs: nounwind uwtable
define i32 @sch_filter_command(ptr noundef readonly captures(none) %0, i32 noundef %1, ptr noundef %2) local_unnamed_addr #0 {
  %4 = getelementptr inbounds nuw i8, ptr %0, i64 232
  %5 = load i32, ptr %4, align 8, !tbaa !62
  %6 = icmp ult i32 %1, %5
  br i1 %6, label %8, label %7

7:                                                ; preds = %3
  tail call void (ptr, i32, ptr, ...) @av_log(ptr noundef null, i32 noundef 0, ptr noundef nonnull @.str, ptr noundef nonnull @.str.28, ptr noundef nonnull @.str.2, i32 noundef 2509) #9
  tail call void @abort() #10
  unreachable

8:                                                ; preds = %3
  %9 = getelementptr inbounds nuw i8, ptr %0, i64 224
  %10 = load ptr, ptr %9, align 8, !tbaa !65
  %11 = zext i32 %1 to i64
  %12 = getelementptr inbounds nuw %struct.SchFilterGraph, ptr %10, i64 %11
  %13 = getelementptr inbounds nuw i8, ptr %12, i64 16
  %14 = load i32, ptr %13, align 8, !tbaa !110
  %.not.i = icmp eq ptr %2, null
  br i1 %.not.i, label %19, label %15

15:                                               ; preds = %8
  %16 = getelementptr inbounds nuw i8, ptr %12, i64 104
  %17 = load ptr, ptr %16, align 8, !tbaa !214
  %18 = tail call i32 @tq_send(ptr noundef %17, i32 noundef %14, ptr noundef nonnull %2) #9
  br label %send_to_filter.exit

19:                                               ; preds = %8
  %20 = getelementptr inbounds nuw i8, ptr %12, i64 8
  %21 = load ptr, ptr %20, align 8, !tbaa !109
  %22 = zext i32 %14 to i64
  %23 = getelementptr inbounds nuw %struct.SchFilterIn, ptr %21, i64 %22, i32 2
  %24 = load i32, ptr %23, align 4, !tbaa !215
  %.not17.i = icmp eq i32 %24, 0
  br i1 %.not17.i, label %25, label %send_to_filter.exit

25:                                               ; preds = %19
  store i32 1, ptr %23, align 4, !tbaa !215
  %26 = getelementptr inbounds nuw i8, ptr %12, i64 104
  %27 = load ptr, ptr %26, align 8, !tbaa !214
  tail call void @tq_send_finish(ptr noundef %27, i32 noundef %14) #9
  %28 = getelementptr inbounds nuw i8, ptr %12, i64 20
  %29 = atomicrmw add ptr %28, i32 1 seq_cst, align 4
  %30 = load i32, ptr %13, align 8, !tbaa !110
  %31 = add i32 %30, -1
  %32 = icmp eq i32 %29, %31
  br i1 %32, label %33, label %send_to_filter.exit

33:                                               ; preds = %25
  %34 = load ptr, ptr %26, align 8, !tbaa !214
  tail call void @tq_send_finish(ptr noundef %34, i32 noundef %30) #9
  br label %send_to_filter.exit

send_to_filter.exit:                              ; preds = %15, %19, %25, %33
  %.0.i = phi i32 [ %18, %15 ], [ 0, %25 ], [ 0, %33 ], [ 0, %19 ]
  ret i32 %.0.i
}